target datalayout = "e-m:e-p270:32:32-p271:32:32-p272:64:64-i64:64-i128:128-f80:128-n8:16:32:64-S128"
target triple = "x86_64-pc-linux-gnu"

%struct.FullTransactionId = type { i64 }

@.str.2 = private unnamed_addr constant [11 x i8] c"twophase.c\00", align 1
@.str.50 = private unnamed_addr constant [31 x i8] c"could not remove file \22%s\22: %m\00", align 1
@__func__.RemoveTwoPhaseFile = private unnamed_addr constant [19 x i8] c"RemoveTwoPhaseFile\00", align 1
@.str.61 = private unnamed_addr constant [21 x i8] c"pg_twophase/%08X%08X\00", align 1

; Function Attrs: inlinehint nounwind uwtable
define internal i64 @FullTransactionIdFromEpochAndXid(i32 noundef %0, i32 noundef %1) #5 {
  %3 = alloca %struct.FullTransactionId, align 8
  %4 = alloca i32, align 4
  %5 = alloca i32, align 4
  store i32 %0, ptr %4, align 4
  store i32 %1, ptr %5, align 4
  %6 = load i32, ptr %4, align 4
  %7 = zext i32 %6 to i64
  %8 = shl i64 %7, 32
  %9 = load i32, ptr %5, align 4
  %10 = zext i32 %9 to i64
  %11 = or i64 %8, %10
  %12 = getelementptr inbounds nuw %struct.FullTransactionId, ptr %3, i32 0, i32 0
  store i64 %11, ptr %12, align 8
  %13 = getelementptr inbounds nuw %struct.FullTransactionId, ptr %3, i32 0, i32 0
  %14 = load i64, ptr %13, align 8
  ret i64 %14
}

; Function Attrs: inlinehint nounwind uwtable
define internal i64 @FullTransactionIdFromAllowableAt(i64 %0, i32 noundef %1) #5 {
  %3 = alloca %struct.FullTransactionId, align 8
  %4 = alloca %struct.FullTransactionId, align 8
  %5 = alloca i32, align 4
  %6 = alloca i32, align 4
  %7 = alloca i32, align 4
  %8 = getelementptr inbounds nuw %struct.FullTransactionId, ptr %4, i32 0, i32 0
  store i64 %0, ptr %8, align 8
  store i32 %1, ptr %5, align 4
  call void @llvm.lifetime.start.p0(i64 4, ptr %6) #12
  %9 = load i32, ptr %5, align 4
  %10 = icmp uge i32 %9, 3
  br i1 %10, label %15, label %11

11:                                               ; preds = %2
  %12 = load i32, ptr %5, align 4
  %13 = call i64 @FullTransactionIdFromEpochAndXid(i32 noundef 0, i32 noundef %12)
  %14 = getelementptr inbounds nuw %struct.FullTransactionId, ptr %3, i32 0, i32 0
  store i64 %13, ptr %14, align 8
  store i32 1, ptr %7, align 4
  br label %39

15:                                               ; preds = %2
  %16 = getelementptr inbounds nuw %struct.FullTransactionId, ptr %4, i32 0, i32 0
  %17 = load i64, ptr %16, align 8
  %18 = lshr i64 %17, 32
  %19 = trunc i64 %18 to i32
  store i32 %19, ptr %6, align 4
  %20 = load i32, ptr %5, align 4
  %21 = getelementptr inbounds nuw %struct.FullTransactionId, ptr %4, i32 0, i32 0
  %22 = load i64, ptr %21, align 8
  %23 = trunc i64 %22 to i32
  %24 = icmp ugt i32 %20, %23
  %25 = zext i1 %24 to i32
  %26 = icmp ne i32 %25, 0
  %27 = zext i1 %26 to i32
  %28 = sext i32 %27 to i64
  %29 = call i64 @llvm.expect.i64(i64 %28, i64 0)
  %30 = icmp ne i64 %29, 0
  br i1 %30, label %31, label %34

31:                                               ; preds = %15
  %32 = load i32, ptr %6, align 4
  %33 = add i32 %32, -1
  store i32 %33, ptr %6, align 4
  br label %34

34:                                               ; preds = %31, %15
  %35 = load i32, ptr %6, align 4
  %36 = load i32, ptr %5, align 4
  %37 = call i64 @FullTransactionIdFromEpochAndXid(i32 noundef %35, i32 noundef %36)
  %38 = getelementptr inbounds nuw %struct.FullTransactionId, ptr %3, i32 0, i32 0
  store i64 %37, ptr %38, align 8
  store i32 1, ptr %7, align 4
  br label %39

39:                                               ; preds = %34, %11
  call void @llvm.lifetime.end.p0(i64 4, ptr %6) #12
  %40 = getelementptr inbounds nuw %struct.FullTransactionId, ptr %3, i32 0, i32 0
  %41 = load i64, ptr %40, align 8
  ret i64 %41
}

; Function Attrs: inlinehint nounwind uwtable
define internal i64 @AdjustToFullTransactionId(i32 noundef %0) #5 {
  %2 = alloca %struct.FullTransactionId, align 8
  %3 = alloca i32, align 4
  %4 = alloca %struct.FullTransactionId, align 8
  store i32 %0, ptr %3, align 4
  %5 = call i64 @ReadNextFullTransactionId()
  %6 = getelementptr inbounds nuw %struct.FullTransactionId, ptr %4, i32 0, i32 0
  store i64 %5, ptr %6, align 8
  %7 = load i32, ptr %3, align 4
  %8 = getelementptr inbounds nuw %struct.FullTransactionId, ptr %4, i32 0, i32 0
  %9 = load i64, ptr %8, align 8
  %10 = call i64 @FullTransactionIdFromAllowableAt(i64 %9, i32 noundef %7)
  %11 = getelementptr inbounds nuw %struct.FullTransactionId, ptr %2, i32 0, i32 0
  store i64 %10, ptr %11, align 8
  %12 = getelementptr inbounds nuw %struct.FullTransactionId, ptr %2, i32 0, i32 0
  %13 = load i64, ptr %12, align 8
  ret i64 %13
}

; Function Attrs: inlinehint nounwind uwtable
define internal i32 @TwoPhaseFilePath(ptr noundef %0, i32 noundef %1) #5 {
  %3 = alloca ptr, align 8
  %4 = alloca i32, align 4
  %5 = alloca %struct.FullTransactionId, align 8
  store ptr %0, ptr %3, align 8
  store i32 %1, ptr %4, align 4
  call void @llvm.lifetime.start.p0(i64 8, ptr %5) #12
  %6 = load i32, ptr %4, align 4
  %7 = call i64 @AdjustToFullTransactionId(i32 noundef %6)
  %8 = getelementptr inbounds nuw %struct.FullTransactionId, ptr %5, i32 0, i32 0
  store i64 %7, ptr %8, align 8
  %9 = load ptr, ptr %3, align 8
  %10 = getelementptr inbounds nuw %struct.FullTransactionId, ptr %5, i32 0, i32 0
  %11 = load i64, ptr %10, align 8
  %12 = lshr i64 %11, 32
  %13 = trunc i64 %12 to i32
  %14 = getelementptr inbounds nuw %struct.FullTransactionId, ptr %5, i32 0, i32 0
  %15 = load i64, ptr %14, align 8
  %16 = trunc i64 %15 to i32
  %17 = call i32 (ptr, i64, ptr, ...) @pg_snprintf(ptr noundef %9, i64 noundef 1024, ptr noundef @.str.61, i32 noundef %13, i32 noundef %16)
  call void @llvm.lifetime.end.p0(i64 8, ptr %5) #12
  ret i32 %17
}

; Function Attrs: nounwind uwtable
define internal void @RemoveTwoPhaseFile(i32 noundef %0, i1 noundef zeroext %1) #0 {
  %3 = alloca i32, align 4
  %4 = alloca i8, align 1
  %5 = alloca [1024 x i8], align 16
  store i32 %0, ptr %3, align 4
  %6 = zext i1 %1 to i8
  store i8 %6, ptr %4, align 1
  call void @llvm.lifetime.start.p0(i64 1024, ptr %5) #12
  %7 = getelementptr inbounds [1024 x i8], ptr %5, i64 0, i64 0
  %8 = load i32, ptr %3, align 4
  %9 = call i32 @TwoPhaseFilePath(ptr noundef %7, i32 noundef %8)
  %10 = getelementptr inbounds [1024 x i8], ptr %5, i64 0, i64 0
  %11 = call i32 @unlink(ptr noundef %10) #12
  %12 = icmp ne i32 %11, 0
  br i1 %12, label %13, label %34

13:                                               ; preds = %2
  %14 = call ptr @__errno_location() #15
  %15 = load i32, ptr %14, align 4
  %16 = icmp ne i32 %15, 2
  br i1 %16, label %20, label %17

17:                                               ; preds = %13
  %18 = load i8, ptr %4, align 1, !range !4, !noundef !5
  %19 = trunc i8 %18 to i1
  br i1 %19, label %20, label %33

20:                                               ; preds = %17, %13
  br label %21

21:                                               ; preds = %20
  br i1 false, label %22, label %24

22:                                               ; preds = %21
  %23 = call zeroext i1 @errstart_cold(i32 noundef 19, ptr noundef null) #13
  br i1 %23, label %26, label %30

24:                                               ; preds = %21
  %25 = call zeroext i1 @errstart(i32 noundef 19, ptr noundef null)
  br i1 %25, label %26, label %30

26:                                               ; preds = %24, %22
  %27 = call i32 @errcode_for_file_access()
  %28 = getelementptr inbounds [1024 x i8], ptr %5, i64 0, i64 0
  %29 = call i32 (ptr, ...) @errmsg(ptr noundef @.str.50, ptr noundef %28)
  call void @errfinish(ptr noundef @.str.2, i32 noundef 1716, ptr noundef @__func__.RemoveTwoPhaseFile)
  br label %30

30:                                               ; preds = %26, %24, %22
  br label %31

31:                                               ; preds = %30
  br label %32

32:                                               ; preds = %31
  br label %33

33:                                               ; preds = %32, %17
  br label %34

34:                                               ; preds = %33, %2
  call void @llvm.lifetime.end.p0(i64 1024, ptr %5) #12
  ret void
}