; Function Attrs: nounwind uwtable
define internal fastcc void @RemoveTwoPhaseFile(i32 noundef %0, i1 noundef zeroext %1) unnamed_addr #0 {
  %3 = alloca [1024 x i8], align 16
  call void @llvm.lifetime.start.p0(i64 1024, ptr nonnull %3) #14
  %4 = tail call i64 @ReadNextFullTransactionId() #14
  %5 = icmp ugt i32 %0, 2
  br i1 %5, label %8, label %6

6:                                                ; preds = %2
  %7 = zext nneg i32 %0 to i64
  br label %TwoPhaseFilePath.exit

8:                                                ; preds = %2
  %9 = lshr i64 %4, 32
  %10 = trunc i64 %4 to i32
  %11 = icmp ugt i32 %0, %10
  br i1 %11, label %12, label %15, !prof !16

12:                                               ; preds = %8
  %13 = add nuw nsw i64 %9, 4294967295
  %14 = and i64 %13, 4294967295
  br label %15

15:                                               ; preds = %12, %8
  %.0.i.i.i = phi i64 [ %14, %12 ], [ %9, %8 ]
  %16 = shl nuw i64 %.0.i.i.i, 32
  %17 = zext i32 %0 to i64
  %18 = or disjoint i64 %16, %17
  br label %TwoPhaseFilePath.exit

TwoPhaseFilePath.exit:                            ; preds = %6, %15
  %.sroa.07.0.i.i.i = phi i64 [ %18, %15 ], [ %7, %6 ]
  %19 = lshr i64 %.sroa.07.0.i.i.i, 32
  %20 = trunc nuw i64 %19 to i32
  %21 = trunc i64 %.sroa.07.0.i.i.i to i32
  %22 = call i32 (ptr, i64, ptr, ...) @pg_snprintf(ptr noundef nonnull %3, i64 noundef 1024, ptr noundef nonnull @.str.61, i32 noundef %20, i32 noundef %21) #14
  %23 = call i32 @unlink(ptr noundef nonnull %3) #14
  %.not = icmp eq i32 %23, 0
  br i1 %.not, label %32, label %24

24:                                               ; preds = %TwoPhaseFilePath.exit
  %25 = tail call ptr @__errno_location() #17
  %26 = load i32, ptr %25, align 4
  %.not2 = icmp ne i32 %26, 2
  %brmerge = or i1 %1, %.not2
  br i1 %brmerge, label %27, label %32

27:                                               ; preds = %24
  %28 = call zeroext i1 @errstart(i32 noundef 19, ptr noundef null) #14
  br i1 %28, label %29, label %32

29:                                               ; preds = %27
  %30 = call i32 @errcode_for_file_access() #14
  %31 = call i32 (ptr, ...) @errmsg(ptr noundef nonnull @.str.50, ptr noundef nonnull %3) #14
  call void @errfinish(ptr noundef nonnull @.str.2, i32 noundef 1716, ptr noundef nonnull @__func__.RemoveTwoPhaseFile) #14
  br label %32

32:                                               ; preds = %24, %29, %27, %TwoPhaseFilePath.exit
  call void @llvm.lifetime.end.p0(i64 1024, ptr nonnull %3) #14
  ret void
}